target datalayout = "e-m:e-p270:32:32-p271:32:32-p272:64:64-i64:64-i128:128-f80:128-n8:16:32:64-S128"
target triple = "x86_64-pc-linux-gnu"

; Function Attrs: nounwind uwtable
define internal i32 @pem_get_iv(ptr noundef %0, ptr noundef %1, i64 noundef %2) #0 {
  %4 = alloca i32, align 4
  %5 = alloca ptr, align 8
  %6 = alloca ptr, align 8
  %7 = alloca i64, align 8
  %8 = alloca i64, align 8
  %9 = alloca i64, align 8
  %10 = alloca i64, align 8
  %11 = alloca i32, align 4
  store ptr %0, ptr %5, align 8, !tbaa !8
  store ptr %1, ptr %6, align 8, !tbaa !8
  store i64 %2, ptr %7, align 8, !tbaa !10
  call void @llvm.lifetime.start.p0(i64 8, ptr %8) #9
  call void @llvm.lifetime.start.p0(i64 8, ptr %9) #9
  call void @llvm.lifetime.start.p0(i64 8, ptr %10) #9
  %12 = load ptr, ptr %6, align 8, !tbaa !8
  %13 = load i64, ptr %7, align 8, !tbaa !10
  call void @llvm.memset.p0.i64(ptr align 1 %12, i8 0, i64 %13, i1 false)
  store i64 0, ptr %8, align 8, !tbaa !10
  br label %14

14:                                               ; preds = %94, %3
  %15 = load i64, ptr %8, align 8, !tbaa !10
  %16 = load i64, ptr %7, align 8, !tbaa !10
  %17 = mul i64 %16, 2
  %18 = icmp ult i64 %15, %17
  br i1 %18, label %19, label %99

19:                                               ; preds = %14
  %20 = load ptr, ptr %5, align 8, !tbaa !8
  %21 = load i8, ptr %20, align 1, !tbaa !16
  %22 = zext i8 %21 to i32
  %23 = icmp sge i32 %22, 48
  br i1 %23, label %24, label %35

24:                                               ; preds = %19
  %25 = load ptr, ptr %5, align 8, !tbaa !8
  %26 = load i8, ptr %25, align 1, !tbaa !16
  %27 = zext i8 %26 to i32
  %28 = icmp sle i32 %27, 57
  br i1 %28, label %29, label %35

29:                                               ; preds = %24
  %30 = load ptr, ptr %5, align 8, !tbaa !8
  %31 = load i8, ptr %30, align 1, !tbaa !16
  %32 = zext i8 %31 to i32
  %33 = sub nsw i32 %32, 48
  %34 = sext i32 %33 to i64
  store i64 %34, ptr %9, align 8, !tbaa !10
  br label %70

35:                                               ; preds = %24, %19
  %36 = load ptr, ptr %5, align 8, !tbaa !8
  %37 = load i8, ptr %36, align 1, !tbaa !16
  %38 = zext i8 %37 to i32
  %39 = icmp sge i32 %38, 65
  br i1 %39, label %40, label %51

40:                                               ; preds = %35
  %41 = load ptr, ptr %5, align 8, !tbaa !8
  %42 = load i8, ptr %41, align 1, !tbaa !16
  %43 = zext i8 %42 to i32
  %44 = icmp sle i32 %43, 70
  br i1 %44, label %45, label %51

45:                                               ; preds = %40
  %46 = load ptr, ptr %5, align 8, !tbaa !8
  %47 = load i8, ptr %46, align 1, !tbaa !16
  %48 = zext i8 %47 to i32
  %49 = sub nsw i32 %48, 55
  %50 = sext i32 %49 to i64
  store i64 %50, ptr %9, align 8, !tbaa !10
  br label %69

51:                                               ; preds = %40, %35
  %52 = load ptr, ptr %5, align 8, !tbaa !8
  %53 = load i8, ptr %52, align 1, !tbaa !16
  %54 = zext i8 %53 to i32
  %55 = icmp sge i32 %54, 97
  br i1 %55, label %56, label %67

56:                                               ; preds = %51
  %57 = load ptr, ptr %5, align 8, !tbaa !8
  %58 = load i8, ptr %57, align 1, !tbaa !16
  %59 = zext i8 %58 to i32
  %60 = icmp sle i32 %59, 102
  br i1 %60, label %61, label %67

61:                                               ; preds = %56
  %62 = load ptr, ptr %5, align 8, !tbaa !8
  %63 = load i8, ptr %62, align 1, !tbaa !16
  %64 = zext i8 %63 to i32
  %65 = sub nsw i32 %64, 87
  %66 = sext i32 %65 to i64
  store i64 %66, ptr %9, align 8, !tbaa !10
  br label %68

67:                                               ; preds = %56, %51
  store i32 -4608, ptr %4, align 4
  store i32 1, ptr %11, align 4
  br label %100

68:                                               ; preds = %61
  br label %69

69:                                               ; preds = %68, %45
  br label %70

70:                                               ; preds = %69, %29
  %71 = load i64, ptr %8, align 8, !tbaa !10
  %72 = and i64 %71, 1
  %73 = icmp ne i64 %72, 0
  br i1 %73, label %74, label %76

74:                                               ; preds = %70
  %75 = load i64, ptr %9, align 8, !tbaa !10
  br label %79

76:                                               ; preds = %70
  %77 = load i64, ptr %9, align 8, !tbaa !10
  %78 = shl i64 %77, 4
  br label %79

79:                                               ; preds = %76, %74
  %80 = phi i64 [ %75, %74 ], [ %78, %76 ]
  store i64 %80, ptr %10, align 8, !tbaa !10
  %81 = load ptr, ptr %6, align 8, !tbaa !8
  %82 = load i64, ptr %8, align 8, !tbaa !10
  %83 = lshr i64 %82, 1
  %84 = getelementptr inbounds nuw i8, ptr %81, i64 %83
  %85 = load i8, ptr %84, align 1, !tbaa !16
  %86 = zext i8 %85 to i64
  %87 = load i64, ptr %10, align 8, !tbaa !10
  %88 = or i64 %86, %87
  %89 = trunc i64 %88 to i8
  %90 = load ptr, ptr %6, align 8, !tbaa !8
  %91 = load i64, ptr %8, align 8, !tbaa !10
  %92 = lshr i64 %91, 1
  %93 = getelementptr inbounds nuw i8, ptr %90, i64 %92
  store i8 %89, ptr %93, align 1, !tbaa !16
  br label %94

94:                                               ; preds = %79
  %95 = load i64, ptr %8, align 8, !tbaa !10
  %96 = add i64 %95, 1
  store i64 %96, ptr %8, align 8, !tbaa !10
  %97 = load ptr, ptr %5, align 8, !tbaa !8
  %98 = getelementptr inbounds nuw i8, ptr %97, i32 1
  store ptr %98, ptr %5, align 8, !tbaa !8
  br label %14, !llvm.loop !20

99:                                               ; preds = %14
  store i32 0, ptr %4, align 4
  store i32 1, ptr %11, align 4
  br label %100

100:                                              ; preds = %99, %67
  call void @llvm.lifetime.end.p0(i64 8, ptr %10) #9
  call void @llvm.lifetime.end.p0(i64 8, ptr %9) #9
  call void @llvm.lifetime.end.p0(i64 8, ptr %8) #9
  %101 = load i32, ptr %4, align 4
  ret i32 %101
}