; Function Attrs: nofree norecurse nosync nounwind memory(argmem: readwrite) uwtable
define internal fastcc range(i32 -4608, 1) i32 @pem_get_iv(ptr noundef nonnull readonly captures(none) %0, ptr noundef nonnull captures(none) %1, i64 noundef range(i64 8, 17) %2) unnamed_addr #5 {
  tail call void @llvm.memset.p0.i64(ptr noundef nonnull align 1 dereferenceable(1) %1, i8 0, i64 %2, i1 false)
  %4 = shl nuw nsw i64 %2, 1
  br label %5

5:                                                ; preds = %3, %13
  %.02432 = phi i64 [ 0, %3 ], [ %24, %13 ]
  %.02531 = phi ptr [ %0, %3 ], [ %25, %13 ]
  %6 = load i8, ptr %.02531, align 1, !tbaa !3
  %7 = zext i8 %6 to i64
  %8 = add i8 %6, -48
  %or.cond = icmp ult i8 %8, 10
  br i1 %or.cond, label %13, label %9

9:                                                ; preds = %5
  %10 = add i8 %6, -65
  %or.cond29 = icmp ult i8 %10, 6
  br i1 %or.cond29, label %13, label %11

11:                                               ; preds = %9
  %12 = add i8 %6, -97
  %or.cond30 = icmp ult i8 %12, 6
  br i1 %or.cond30, label %13, label %26

13:                                               ; preds = %11, %9, %5
  %.sink = phi i64 [ 4294967248, %5 ], [ 4294967241, %9 ], [ 4294967209, %11 ]
  %14 = add nuw nsw i64 %.sink, %7
  %15 = shl i64 %.02432, 2
  %16 = and i64 %15, 4
  %17 = xor i64 %16, 4
  %18 = shl nuw nsw i64 %14, %17
  %19 = lshr i64 %.02432, 1
  %20 = getelementptr inbounds nuw i8, ptr %1, i64 %19
  %21 = load i8, ptr %20, align 1, !tbaa !3
  %22 = trunc i64 %18 to i8
  %23 = or i8 %21, %22
  store i8 %23, ptr %20, align 1, !tbaa !3
  %24 = add nuw nsw i64 %.02432, 1
  %25 = getelementptr inbounds nuw i8, ptr %.02531, i64 1
  %exitcond.not = icmp eq i64 %24, %4
  br i1 %exitcond.not, label %26, label %5, !llvm.loop !15

26:                                               ; preds = %13, %11
  %.0 = phi i32 [ -4608, %11 ], [ 0, %13 ]
  ret i32 %.0
}